target datalayout = "e-m:e-p270:32:32-p271:32:32-p272:64:64-i64:64-i128:128-f80:128-n8:16:32:64-S128"
target triple = "x86_64-pc-linux-gnu"

%struct.__va_list_tag = type { i32, i32, ptr, ptr }

@hf_mswsp_msg_ConnectIn_Blob1 = internal global i32 0, align 4
@hf_mswsp_msg_ConnectIn_PropSets_num = internal global i32 0, align 4
@ett_CDbPropSet_Array = internal global i32 0, align 4
@.str.1156 = private unnamed_addr constant [29 x i8] c"%s:%u: failed assertion \22%s\22\00", align 1
@.str.1157 = private unnamed_addr constant [31 x i8] c"epan/dissectors/packet-mswsp.c\00", align 1
@.str.1161 = private unnamed_addr constant [16 x i8] c"PropertySet[%d]\00", align 1
@.str.1162 = private unnamed_addr constant [32 x i8] c"offset - offset_in == (int)size\00", align 1

; Function Attrs: null_pointer_is_valid sspstrong uwtable
define internal i32 @parse_PropertySetArray(ptr noundef %0, ptr noundef %1, i32 noundef %2, i32 noundef %3, ptr noundef %4, ptr noundef %5, ptr noundef %6, ...) #0 {
  %8 = alloca ptr, align 8
  %9 = alloca ptr, align 8
  %10 = alloca i32, align 4
  %11 = alloca i32, align 4
  %12 = alloca ptr, align 8
  %13 = alloca ptr, align 8
  %14 = alloca ptr, align 8
  %15 = alloca i32, align 4
  %16 = alloca i32, align 4
  %17 = alloca i32, align 4
  %18 = alloca i32, align 4
  %19 = alloca ptr, align 8
  %20 = alloca ptr, align 8
  %21 = alloca ptr, align 8
  %22 = alloca [1 x %struct.__va_list_tag], align 16
  store ptr %0, ptr %8, align 8
  store ptr %1, ptr %9, align 8
  store i32 %2, ptr %10, align 4
  store i32 %3, ptr %11, align 4
  store ptr %4, ptr %12, align 8
  store ptr %5, ptr %13, align 8
  store ptr %6, ptr %14, align 8
  call void @llvm.lifetime.start.p0(i64 4, ptr %15) #11
  %23 = load i32, ptr %10, align 4
  store i32 %23, ptr %15, align 4
  call void @llvm.lifetime.start.p0(i64 4, ptr %16) #11
  call void @llvm.lifetime.start.p0(i64 4, ptr %17) #11
  call void @llvm.lifetime.start.p0(i64 4, ptr %18) #11
  call void @llvm.lifetime.start.p0(i64 8, ptr %19) #11
  call void @llvm.lifetime.start.p0(i64 8, ptr %20) #11
  call void @llvm.lifetime.start.p0(i64 8, ptr %21) #11
  call void @llvm.lifetime.start.p0(i64 24, ptr %22) #11
  %24 = getelementptr inbounds [1 x %struct.__va_list_tag], ptr %22, i64 0, i64 0
  call void @llvm.va_start.p0(ptr %24)
  %25 = call ptr @wmem_packet_scope()
  %26 = load ptr, ptr %14, align 8
  %27 = getelementptr inbounds [1 x %struct.__va_list_tag], ptr %22, i64 0, i64 0
  %28 = call noalias ptr @wmem_strdup_vprintf(ptr noundef %25, ptr noundef %26, ptr noundef %27)
  store ptr %28, ptr %21, align 8
  %29 = getelementptr inbounds [1 x %struct.__va_list_tag], ptr %22, i64 0, i64 0
  call void @llvm.va_end.p0(ptr %29)
  %30 = load ptr, ptr %12, align 8
  %31 = load ptr, ptr %8, align 8
  %32 = load i32, ptr %10, align 4
  %33 = load i32, ptr @ett_CDbPropSet_Array, align 4
  %34 = load ptr, ptr %21, align 8
  %35 = call ptr @proto_tree_add_subtree(ptr noundef %30, ptr noundef %31, i32 noundef %32, i32 noundef 0, i32 noundef %33, ptr noundef %20, ptr noundef %34)
  store ptr %35, ptr %19, align 8
  %36 = load ptr, ptr %8, align 8
  %37 = load i32, ptr %11, align 4
  %38 = call i32 @tvb_get_letohl(ptr noundef %36, i32 noundef %37)
  store i32 %38, ptr %16, align 4
  %39 = load ptr, ptr %19, align 8
  %40 = load i32, ptr @hf_mswsp_msg_ConnectIn_Blob1, align 4
  %41 = load ptr, ptr %8, align 8
  %42 = load i32, ptr %11, align 4
  %43 = call ptr @proto_tree_add_item(ptr noundef %39, i32 noundef %40, ptr noundef %41, i32 noundef %42, i32 noundef 4, i32 noundef -2147483648)
  %44 = load ptr, ptr %8, align 8
  %45 = load i32, ptr %10, align 4
  %46 = call i32 @tvb_get_letohl(ptr noundef %44, i32 noundef %45)
  store i32 %46, ptr %17, align 4
  %47 = load ptr, ptr %19, align 8
  %48 = load i32, ptr @hf_mswsp_msg_ConnectIn_PropSets_num, align 4
  %49 = load ptr, ptr %8, align 8
  %50 = load i32, ptr %10, align 4
  %51 = call ptr @proto_tree_add_item(ptr noundef %47, i32 noundef %48, ptr noundef %49, i32 noundef %50, i32 noundef 4, i32 noundef -2147483648)
  %52 = load i32, ptr %10, align 4
  %53 = add i32 %52, 4
  store i32 %53, ptr %10, align 4
  store i32 0, ptr %18, align 4
  br label %54

54:                                               ; preds = %66, %7
  %55 = load i32, ptr %18, align 4
  %56 = load i32, ptr %17, align 4
  %57 = icmp slt i32 %55, %56
  br i1 %57, label %58, label %69

58:                                               ; preds = %54
  %59 = load ptr, ptr %8, align 8
  %60 = load ptr, ptr %9, align 8
  %61 = load i32, ptr %10, align 4
  %62 = load ptr, ptr %19, align 8
  %63 = load ptr, ptr %13, align 8
  %64 = load i32, ptr %18, align 4
  %65 = call i32 (ptr, ptr, i32, ptr, ptr, ptr, ...) @parse_CDbPropSet(ptr noundef %59, ptr noundef %60, i32 noundef %61, ptr noundef %62, ptr noundef %63, ptr noundef @.str.1161, i32 noundef %64)
  store i32 %65, ptr %10, align 4
  br label %66

66:                                               ; preds = %58
  %67 = load i32, ptr %18, align 4
  %68 = add i32 %67, 1
  store i32 %68, ptr %18, align 4
  br label %54, !llvm.loop !13

69:                                               ; preds = %54
  %70 = load ptr, ptr %20, align 8
  %71 = load ptr, ptr %8, align 8
  %72 = load i32, ptr %10, align 4
  call void @proto_item_set_end(ptr noundef %70, ptr noundef %71, i32 noundef %72)
  %73 = load i32, ptr %10, align 4
  %74 = load i32, ptr %15, align 4
  %75 = sub i32 %73, %74
  %76 = load i32, ptr %16, align 4
  %77 = icmp eq i32 %75, %76
  br i1 %77, label %78, label %79

78:                                               ; preds = %69
  br label %81

79:                                               ; preds = %69
  call void (ptr, ...) @proto_report_dissector_bug(ptr noundef @.str.1156, ptr noundef @.str.1157, i32 noundef 4486, ptr noundef @.str.1162) #12
  unreachable

80:                                               ; No predecessors!
  br label %81

81:                                               ; preds = %80, %78
  %82 = load i32, ptr %10, align 4
  call void @llvm.lifetime.end.p0(i64 24, ptr %22) #11
  call void @llvm.lifetime.end.p0(i64 8, ptr %21) #11
  call void @llvm.lifetime.end.p0(i64 8, ptr %20) #11
  call void @llvm.lifetime.end.p0(i64 8, ptr %19) #11
  call void @llvm.lifetime.end.p0(i64 4, ptr %18) #11
  call void @llvm.lifetime.end.p0(i64 4, ptr %17) #11
  call void @llvm.lifetime.end.p0(i64 4, ptr %16) #11
  call void @llvm.lifetime.end.p0(i64 4, ptr %15) #11
  ret i32 %82
}