; Function Attrs: null_pointer_is_valid sspstrong uwtable
define internal noundef i32 @parse_PropertySetArray(ptr noundef %0, ptr noundef %1, i32 noundef %2, i32 noundef %3, ptr noundef %4, ptr noundef %5, ptr noundef %6, ...) unnamed_addr #0 {
  %8 = alloca ptr, align 8
  %9 = alloca [1 x %struct.__va_list_tag], align 16
  call void @llvm.lifetime.start.p0(i64 8, ptr nonnull %8) #11
  call void @llvm.lifetime.start.p0(i64 24, ptr nonnull %9) #11
  call void @llvm.va_start.p0(ptr nonnull %9)
  %10 = call ptr @wmem_packet_scope()
  %11 = call noalias ptr @wmem_strdup_vprintf(ptr noundef %10, ptr noundef %6, ptr noundef nonnull %9)
  call void @llvm.va_end.p0(ptr nonnull %9)
  %12 = load i32, ptr @ett_CDbPropSet_Array, align 4
  %13 = call ptr @proto_tree_add_subtree(ptr noundef %4, ptr noundef %0, i32 noundef %2, i32 noundef 0, i32 noundef %12, ptr noundef nonnull %8, ptr noundef %11)
  %14 = call i32 @tvb_get_letohl(ptr noundef %0, i32 noundef %3)
  %15 = load i32, ptr @hf_mswsp_msg_ConnectIn_Blob1, align 4
  %16 = call ptr @proto_tree_add_item(ptr noundef %13, i32 noundef %15, ptr noundef %0, i32 noundef %3, i32 noundef 4, i32 noundef -2147483648)
  %17 = call i32 @tvb_get_letohl(ptr noundef %0, i32 noundef %2)
  %18 = load i32, ptr @hf_mswsp_msg_ConnectIn_PropSets_num, align 4
  %19 = call ptr @proto_tree_add_item(ptr noundef %13, i32 noundef %18, ptr noundef %0, i32 noundef %2, i32 noundef 4, i32 noundef -2147483648)
  %20 = add i32 %2, 4
  %21 = icmp sgt i32 %17, 0
  br i1 %21, label %.lr.ph, label %._crit_edge

.lr.ph:                                           ; preds = %7, %.lr.ph
  %.033 = phi i32 [ %22, %.lr.ph ], [ %20, %7 ]
  %.03132 = phi i32 [ %23, %.lr.ph ], [ 0, %7 ]
  %22 = call i32 (ptr, ptr, i32, ptr, ptr, ptr, ...) @parse_CDbPropSet(ptr noundef %0, ptr noundef %1, i32 noundef %.033, ptr noundef %13, ptr noundef %5, ptr nonnull poison, i32 noundef %.03132)
  %23 = add nuw nsw i32 %.03132, 1
  %exitcond.not = icmp eq i32 %23, %17
  br i1 %exitcond.not, label %._crit_edge, label %.lr.ph, !llvm.loop !14

._crit_edge:                                      ; preds = %.lr.ph, %7
  %.0.lcssa = phi i32 [ %20, %7 ], [ %22, %.lr.ph ]
  %24 = load ptr, ptr %8, align 8
  call void @proto_item_set_end(ptr noundef %24, ptr noundef %0, i32 noundef %.0.lcssa)
  %25 = sub i32 %.0.lcssa, %2
  %26 = icmp eq i32 %25, %14
  br i1 %26, label %28, label %27

27:                                               ; preds = %._crit_edge
  call void (ptr, ...) @proto_report_dissector_bug(ptr noundef nonnull @.str.1156, ptr noundef nonnull @.str.1157, i32 noundef 4486, ptr noundef nonnull @.str.1162) #13
  unreachable

28:                                               ; preds = %._crit_edge
  call void @llvm.lifetime.end.p0(i64 24, ptr nonnull %9) #11
  call void @llvm.lifetime.end.p0(i64 8, ptr nonnull %8) #11
  ret i32 %.0.lcssa
}